target datalayout = "e-m:e-p270:32:32-p271:32:32-p272:64:64-i64:64-i128:128-f80:128-n8:16:32:64-S128"
target triple = "x86_64-pc-linux-gnu"

%struct.AVIOContext = type { ptr, ptr, i32, ptr, ptr, ptr, ptr, ptr, ptr, i64, i32, i32, i32, i32, i32, i64, ptr, ptr, ptr, ptr, i32, i32, ptr, ptr, ptr, i32, ptr, i64, i64 }
%struct.DynBuffer = type { i32, i32, i32, ptr, i32, [1 x i8] }

; Function Attrs: nounwind uwtable
define void @avio_context_free(ptr noundef %0) #0 {
  %2 = alloca ptr, align 8
  store ptr %0, ptr %2, align 8, !tbaa !47
  %3 = load ptr, ptr %2, align 8, !tbaa !47
  call void @av_freep(ptr noundef %3)
  ret void
}

; Function Attrs: nounwind uwtable
define void @ffio_free_dyn_buf(ptr noundef %0) #0 {
  %2 = alloca ptr, align 8
  %3 = alloca ptr, align 8
  %4 = alloca i32, align 4
  store ptr %0, ptr %2, align 8, !tbaa !47
  call void @llvm.lifetime.start.p0(i64 8, ptr %3) #12
  %5 = load ptr, ptr %2, align 8, !tbaa !47
  %6 = load ptr, ptr %5, align 8, !tbaa !14
  %7 = icmp ne ptr %6, null
  br i1 %7, label %9, label %8

8:                                                ; preds = %1
  store i32 1, ptr %4, align 4
  br label %18

9:                                                ; preds = %1
  %10 = load ptr, ptr %2, align 8, !tbaa !47
  %11 = load ptr, ptr %10, align 8, !tbaa !14
  %12 = getelementptr inbounds nuw %struct.AVIOContext, ptr %11, i32 0, i32 5
  %13 = load ptr, ptr %12, align 8, !tbaa !25
  store ptr %13, ptr %3, align 8, !tbaa !99
  %14 = load ptr, ptr %3, align 8, !tbaa !99
  %15 = getelementptr inbounds nuw %struct.DynBuffer, ptr %14, i32 0, i32 3
  %16 = load ptr, ptr %15, align 8, !tbaa !104
  call void @av_free(ptr noundef %16)
  %17 = load ptr, ptr %2, align 8, !tbaa !47
  call void @avio_context_free(ptr noundef %17)
  store i32 0, ptr %4, align 4
  br label %18

18:                                               ; preds = %9, %8
  call void @llvm.lifetime.end.p0(i64 8, ptr %3) #12
  %19 = load i32, ptr %4, align 4
  switch i32 %19, label %21 [
    i32 0, label %20
    i32 1, label %20
  ]

20:                                               ; preds = %18, %18
  ret void

21:                                               ; preds = %18
  unreachable
}