; Function Attrs: nounwind uwtable
define void @ffio_free_dyn_buf(ptr noundef %0) local_unnamed_addr #3 {
  %2 = load ptr, ptr %0, align 8, !tbaa !79
  %.not = icmp eq ptr %2, null
  br i1 %.not, label %8, label %3

3:                                                ; preds = %1
  %4 = getelementptr inbounds nuw i8, ptr %2, i64 40
  %5 = load ptr, ptr %4, align 8, !tbaa !18
  %6 = getelementptr inbounds nuw i8, ptr %5, i64 16
  %7 = load ptr, ptr %6, align 8, !tbaa !82
  tail call void @av_free(ptr noundef %7) #14
  tail call void @av_freep(ptr noundef nonnull %0) #14
  br label %8

8:                                                ; preds = %1, %3
  ret void
}